; Function Attrs: mustprogress uwtable
define hidden noundef nonnull align 8 dereferenceable(8) ptr @_ZN4cvc58internal6theory5arith6linearlsERSoPNS3_10ConstraintE(ptr noundef nonnull align 8 dereferenceable(8) %o, ptr noundef %c) local_unnamed_addr #4 {
entry:
  %cmp = icmp eq ptr %c, null
  br i1 %cmp, label %if.then, label %if.else

if.then:                                          ; preds = %entry
  %call = tail call noundef nonnull align 8 dereferenceable(8) ptr @_ZStlsISt11char_traitsIcEERSt13basic_ostreamIcT_ES5_PKc(ptr noundef nonnull align 8 dereferenceable(8) %o, ptr noundef nonnull @.str.10)
  br label %return

if.else:                                          ; preds = %entry
  %call1 = tail call noundef nonnull align 8 dereferenceable(8) ptr @_ZN4cvc58internal6theory5arith6linearlsERSoRKNS3_10ConstraintE(ptr noundef nonnull align 8 dereferenceable(8) %o, ptr noundef nonnull align 8 dereferenceable(145) %c)
  br label %return

return:                                           ; preds = %if.else, %if.then
  %retval.0 = phi ptr [ %call, %if.then ], [ %o, %if.else ]
  ret ptr %retval.0
}